target datalayout = "e-m:e-p270:32:32-p271:32:32-p272:64:64-i64:64-i128:128-f80:128-n8:16:32:64-S128"
target triple = "x86_64-pc-linux-gnu"

%struct.pm_integer_t = type { i64, ptr, i32, i8 }

@.str = private unnamed_addr constant [3 x i8] c"%u\00", align 1
@.str.1 = private unnamed_addr constant [4 x i8] c"%lu\00", align 1

; Function Attrs: nounwind sspstrong uwtable
define hidden void @pm_integer_free(ptr noundef %0) #0 {
  %2 = alloca ptr, align 8
  store ptr %0, ptr %2, align 8, !tbaa !7
  %3 = load ptr, ptr %2, align 8, !tbaa !7
  %4 = getelementptr inbounds nuw %struct.pm_integer_t, ptr %3, i32 0, i32 1
  %5 = load ptr, ptr %4, align 8, !tbaa !29
  %6 = icmp ne ptr %5, null
  br i1 %6, label %7, label %11

7:                                                ; preds = %1
  %8 = load ptr, ptr %2, align 8, !tbaa !7
  %9 = getelementptr inbounds nuw %struct.pm_integer_t, ptr %8, i32 0, i32 1
  %10 = load ptr, ptr %9, align 8, !tbaa !29
  call void @free(ptr noundef %10) #10
  br label %11

11:                                               ; preds = %7, %1
  ret void
}

; Function Attrs: nounwind sspstrong uwtable
define hidden void @pm_integer_string(ptr noundef %0, ptr noundef %1) #0 {
  %3 = alloca ptr, align 8
  %4 = alloca ptr, align 8
  %5 = alloca i64, align 8
  %6 = alloca %struct.pm_integer_t, align 8
  %7 = alloca i32, align 4
  %8 = alloca i64, align 8
  %9 = alloca ptr, align 8
  %10 = alloca i64, align 8
  %11 = alloca i32, align 4
  %12 = alloca i64, align 8
  %13 = alloca i64, align 8
  store ptr %0, ptr %3, align 8, !tbaa !7
  store ptr %1, ptr %4, align 8, !tbaa !7
  %14 = load ptr, ptr %4, align 8, !tbaa !7
  %15 = getelementptr inbounds nuw %struct.pm_integer_t, ptr %14, i32 0, i32 3
  %16 = load i8, ptr %15, align 4, !tbaa !26, !range !27, !noundef !28
  %17 = trunc i8 %16 to i1
  br i1 %17, label %18, label %20

18:                                               ; preds = %2
  %19 = load ptr, ptr %3, align 8, !tbaa !7
  call void @pm_buffer_append_byte(ptr noundef %19, i8 noundef zeroext 45)
  br label %20

20:                                               ; preds = %18, %2
  %21 = load ptr, ptr %4, align 8, !tbaa !7
  %22 = getelementptr inbounds nuw %struct.pm_integer_t, ptr %21, i32 0, i32 1
  %23 = load ptr, ptr %22, align 8, !tbaa !29
  %24 = icmp eq ptr %23, null
  br i1 %24, label %25, label %30

25:                                               ; preds = %20
  %26 = load ptr, ptr %3, align 8, !tbaa !7
  %27 = load ptr, ptr %4, align 8, !tbaa !7
  %28 = getelementptr inbounds nuw %struct.pm_integer_t, ptr %27, i32 0, i32 2
  %29 = load i32, ptr %28, align 8, !tbaa !21
  call void (ptr, ptr, ...) @pm_buffer_append_format(ptr noundef %26, ptr noundef @.str, i32 noundef %29)
  br label %140

30:                                               ; preds = %20
  %31 = load ptr, ptr %4, align 8, !tbaa !7
  %32 = getelementptr inbounds nuw %struct.pm_integer_t, ptr %31, i32 0, i32 0
  %33 = load i64, ptr %32, align 8, !tbaa !30
  %34 = icmp eq i64 %33, 2
  br i1 %34, label %35, label %52

35:                                               ; preds = %30
  call void @llvm.lifetime.start.p0(i64 8, ptr %5) #10
  %36 = load ptr, ptr %4, align 8, !tbaa !7
  %37 = getelementptr inbounds nuw %struct.pm_integer_t, ptr %36, i32 0, i32 1
  %38 = load ptr, ptr %37, align 8, !tbaa !29
  %39 = getelementptr i32, ptr %38, i64 0
  %40 = load i32, ptr %39, align 4, !tbaa !11
  %41 = zext i32 %40 to i64
  %42 = load ptr, ptr %4, align 8, !tbaa !7
  %43 = getelementptr inbounds nuw %struct.pm_integer_t, ptr %42, i32 0, i32 1
  %44 = load ptr, ptr %43, align 8, !tbaa !29
  %45 = getelementptr i32, ptr %44, i64 1
  %46 = load i32, ptr %45, align 4, !tbaa !11
  %47 = zext i32 %46 to i64
  %48 = shl i64 %47, 32
  %49 = or i64 %41, %48
  store i64 %49, ptr %5, align 8, !tbaa !18
  %50 = load ptr, ptr %3, align 8, !tbaa !7
  %51 = load i64, ptr %5, align 8, !tbaa !18
  call void (ptr, ptr, ...) @pm_buffer_append_format(ptr noundef %50, ptr noundef @.str.1, i64 noundef %51)
  call void @llvm.lifetime.end.p0(i64 8, ptr %5) #10
  br label %140

52:                                               ; preds = %30
  call void @llvm.lifetime.start.p0(i64 24, ptr %6) #10
  call void @llvm.memset.p0.i64(ptr align 8 %6, i8 0, i64 24, i1 false)
  %53 = load ptr, ptr %4, align 8, !tbaa !7
  call void @pm_integer_convert_base(ptr noundef %6, ptr noundef %53, i64 noundef 4294967296, i64 noundef 1000000000)
  %54 = getelementptr inbounds nuw %struct.pm_integer_t, ptr %6, i32 0, i32 1
  %55 = load ptr, ptr %54, align 8, !tbaa !29
  %56 = icmp eq ptr %55, null
  br i1 %56, label %57, label %61

57:                                               ; preds = %52
  %58 = load ptr, ptr %3, align 8, !tbaa !7
  %59 = getelementptr inbounds nuw %struct.pm_integer_t, ptr %6, i32 0, i32 2
  %60 = load i32, ptr %59, align 8, !tbaa !21
  call void (ptr, ptr, ...) @pm_buffer_append_format(ptr noundef %58, ptr noundef @.str, i32 noundef %60)
  call void @pm_integer_free(ptr noundef %6)
  store i32 1, ptr %7, align 4
  br label %138

61:                                               ; preds = %52
  call void @llvm.lifetime.start.p0(i64 8, ptr %8) #10
  %62 = getelementptr inbounds nuw %struct.pm_integer_t, ptr %6, i32 0, i32 0
  %63 = load i64, ptr %62, align 8, !tbaa !30
  %64 = mul i64 %63, 9
  store i64 %64, ptr %8, align 8, !tbaa !18
  call void @llvm.lifetime.start.p0(i64 8, ptr %9) #10
  %65 = load i64, ptr %8, align 8, !tbaa !18
  %66 = call noalias ptr @calloc(i64 noundef %65, i64 noundef 1) #12
  store ptr %66, ptr %9, align 8, !tbaa !13
  %67 = load ptr, ptr %9, align 8, !tbaa !13
  %68 = icmp eq ptr %67, null
  br i1 %68, label %69, label %70

69:                                               ; preds = %61
  store i32 1, ptr %7, align 4
  br label %137

70:                                               ; preds = %61
  call void @llvm.lifetime.start.p0(i64 8, ptr %10) #10
  store i64 0, ptr %10, align 8, !tbaa !18
  br label %71

71:                                               ; preds = %107, %70
  %72 = load i64, ptr %10, align 8, !tbaa !18
  %73 = getelementptr inbounds nuw %struct.pm_integer_t, ptr %6, i32 0, i32 0
  %74 = load i64, ptr %73, align 8, !tbaa !30
  %75 = icmp ult i64 %72, %74
  br i1 %75, label %77, label %76

76:                                               ; preds = %71
  store i32 2, ptr %7, align 4
  call void @llvm.lifetime.end.p0(i64 8, ptr %10) #10
  br label %110

77:                                               ; preds = %71
  call void @llvm.lifetime.start.p0(i64 4, ptr %11) #10
  %78 = getelementptr inbounds nuw %struct.pm_integer_t, ptr %6, i32 0, i32 1
  %79 = load ptr, ptr %78, align 8, !tbaa !29
  %80 = load i64, ptr %10, align 8, !tbaa !18
  %81 = getelementptr i32, ptr %79, i64 %80
  %82 = load i32, ptr %81, align 4, !tbaa !11
  store i32 %82, ptr %11, align 4, !tbaa !11
  call void @llvm.lifetime.start.p0(i64 8, ptr %12) #10
  store i64 0, ptr %12, align 8, !tbaa !18
  br label %83

83:                                               ; preds = %103, %77
  %84 = load i64, ptr %12, align 8, !tbaa !18
  %85 = icmp ult i64 %84, 9
  br i1 %85, label %87, label %86

86:                                               ; preds = %83
  store i32 5, ptr %7, align 4
  call void @llvm.lifetime.end.p0(i64 8, ptr %12) #10
  br label %106

87:                                               ; preds = %83
  %88 = load i32, ptr %11, align 4, !tbaa !11
  %89 = urem i32 %88, 10
  %90 = add i32 48, %89
  %91 = trunc i32 %90 to i8
  %92 = load ptr, ptr %9, align 8, !tbaa !13
  %93 = load i64, ptr %8, align 8, !tbaa !18
  %94 = load i64, ptr %10, align 8, !tbaa !18
  %95 = mul i64 9, %94
  %96 = sub i64 %93, %95
  %97 = load i64, ptr %12, align 8, !tbaa !18
  %98 = sub i64 %96, %97
  %99 = sub i64 %98, 1
  %100 = getelementptr i8, ptr %92, i64 %99
  store i8 %91, ptr %100, align 1, !tbaa !15
  %101 = load i32, ptr %11, align 4, !tbaa !11
  %102 = udiv i32 %101, 10
  store i32 %102, ptr %11, align 4, !tbaa !11
  br label %103

103:                                              ; preds = %87
  %104 = load i64, ptr %12, align 8, !tbaa !18
  %105 = add i64 %104, 1
  store i64 %105, ptr %12, align 8, !tbaa !18
  br label %83, !llvm.loop !33

106:                                              ; preds = %86
  call void @llvm.lifetime.end.p0(i64 4, ptr %11) #10
  br label %107

107:                                              ; preds = %106
  %108 = load i64, ptr %10, align 8, !tbaa !18
  %109 = add i64 %108, 1
  store i64 %109, ptr %10, align 8, !tbaa !18
  br label %71, !llvm.loop !34

110:                                              ; preds = %76
  call void @llvm.lifetime.start.p0(i64 8, ptr %13) #10
  store i64 0, ptr %13, align 8, !tbaa !18
  br label %111

111:                                              ; preds = %125, %110
  %112 = load i64, ptr %13, align 8, !tbaa !18
  %113 = load i64, ptr %8, align 8, !tbaa !18
  %114 = sub i64 %113, 1
  %115 = icmp ult i64 %112, %114
  br i1 %115, label %116, label %123

116:                                              ; preds = %111
  %117 = load ptr, ptr %9, align 8, !tbaa !13
  %118 = load i64, ptr %13, align 8, !tbaa !18
  %119 = getelementptr i8, ptr %117, i64 %118
  %120 = load i8, ptr %119, align 1, !tbaa !15
  %121 = sext i8 %120 to i32
  %122 = icmp eq i32 %121, 48
  br label %123

123:                                              ; preds = %116, %111
  %124 = phi i1 [ false, %111 ], [ %122, %116 ]
  br i1 %124, label %125, label %128

125:                                              ; preds = %123
  %126 = load i64, ptr %13, align 8, !tbaa !18
  %127 = add i64 %126, 1
  store i64 %127, ptr %13, align 8, !tbaa !18
  br label %111, !llvm.loop !35

128:                                              ; preds = %123
  %129 = load ptr, ptr %3, align 8, !tbaa !7
  %130 = load ptr, ptr %9, align 8, !tbaa !13
  %131 = load i64, ptr %13, align 8, !tbaa !18
  %132 = getelementptr i8, ptr %130, i64 %131
  %133 = load i64, ptr %8, align 8, !tbaa !18
  %134 = load i64, ptr %13, align 8, !tbaa !18
  %135 = sub i64 %133, %134
  call void @pm_buffer_append_string(ptr noundef %129, ptr noundef %132, i64 noundef %135)
  %136 = load ptr, ptr %9, align 8, !tbaa !13
  call void @free(ptr noundef %136) #10
  call void @pm_integer_free(ptr noundef %6)
  call void @llvm.lifetime.end.p0(i64 8, ptr %13) #10
  store i32 0, ptr %7, align 4
  br label %137

137:                                              ; preds = %128, %69
  call void @llvm.lifetime.end.p0(i64 8, ptr %9) #10
  call void @llvm.lifetime.end.p0(i64 8, ptr %8) #10
  br label %138

138:                                              ; preds = %137, %57
  call void @llvm.lifetime.end.p0(i64 24, ptr %6) #10
  %139 = load i32, ptr %7, align 4
  switch i32 %139, label %141 [
    i32 0, label %140
    i32 1, label %140
  ]

140:                                              ; preds = %25, %35, %138, %138
  ret void

141:                                              ; preds = %138
  unreachable
}