; Function Attrs: nounwind sspstrong uwtable
define hidden void @pm_integer_string(ptr noundef %0, ptr noundef readonly captures(none) %1) local_unnamed_addr #0 {
  %3 = alloca %struct.pm_integer_t, align 8
  %4 = getelementptr inbounds nuw i8, ptr %1, i64 20
  %5 = load i8, ptr %4, align 4, !tbaa !31, !range !32, !noundef !33
  %6 = trunc nuw i8 %5 to i1
  br i1 %6, label %7, label %8

7:                                                ; preds = %2
  tail call void @pm_buffer_append_byte(ptr noundef %0, i8 noundef zeroext 45) #14
  br label %8

8:                                                ; preds = %7, %2
  %9 = getelementptr inbounds nuw i8, ptr %1, i64 8
  %10 = load ptr, ptr %9, align 8, !tbaa !22
  %11 = icmp eq ptr %10, null
  br i1 %11, label %12, label %15

12:                                               ; preds = %8
  %13 = getelementptr inbounds nuw i8, ptr %1, i64 16
  %14 = load i32, ptr %13, align 8, !tbaa !30
  tail call void (ptr, ptr, ...) @pm_buffer_append_format(ptr noundef %0, ptr noundef nonnull @.str, i32 noundef %14) #14
  br label %53

15:                                               ; preds = %8
  %16 = load i64, ptr %1, align 8, !tbaa !16
  %17 = icmp eq i64 %16, 2
  br i1 %17, label %18, label %20

18:                                               ; preds = %15
  %19 = load i64, ptr %10, align 4
  tail call void (ptr, ptr, ...) @pm_buffer_append_format(ptr noundef %0, ptr noundef nonnull @.str.1, i64 noundef %19) #14
  br label %53

20:                                               ; preds = %15
  call void @llvm.lifetime.start.p0(i64 24, ptr nonnull %3) #14
  call void @llvm.memset.p0.i64(ptr noundef nonnull align 8 dereferenceable(24) %3, i8 0, i64 24, i1 false)
  call fastcc void @pm_integer_convert_base(ptr noundef nonnull %3, ptr noundef nonnull %1, i64 noundef 4294967296, i64 noundef 1000000000)
  %21 = getelementptr inbounds nuw i8, ptr %3, i64 8
  %22 = load ptr, ptr %21, align 8, !tbaa !22
  %23 = icmp eq ptr %22, null
  br i1 %23, label %pm_integer_free.exit, label %26

pm_integer_free.exit:                             ; preds = %20
  %24 = getelementptr inbounds nuw i8, ptr %3, i64 16
  %25 = load i32, ptr %24, align 8, !tbaa !30
  tail call void (ptr, ptr, ...) @pm_buffer_append_format(ptr noundef %0, ptr noundef nonnull @.str, i32 noundef %25) #14
  br label %52

26:                                               ; preds = %20
  %27 = load i64, ptr %3, align 8, !tbaa !16
  %28 = mul i64 %27, 9
  %29 = tail call noalias ptr @calloc(i64 noundef %28, i64 noundef 1) #13
  %30 = icmp eq ptr %29, null
  br i1 %30, label %52, label %.preheader42

.preheader42:                                     ; preds = %26
  %invariant.gep = getelementptr i8, ptr %29, i64 %28
  %.not = icmp eq i64 %27, 0
  br i1 %.not, label %.lr.ph47.preheader, label %.lr.ph

.preheader:                                       ; preds = %35
  %31 = add i64 %28, -1
  %.not50 = icmp eq i64 %31, 0
  br i1 %.not50, label %pm_integer_free.exit41, label %.lr.ph47.preheader

.lr.ph47.preheader:                               ; preds = %.preheader42, %.preheader
  %32 = phi i64 [ %31, %.preheader ], [ -1, %.preheader42 ]
  br label %.lr.ph47

.lr.ph:                                           ; preds = %.preheader42, %35
  %.03745 = phi i64 [ %36, %35 ], [ 0, %.preheader42 ]
  %33 = getelementptr i32, ptr %22, i64 %.03745
  %34 = load i32, ptr %33, align 4, !tbaa !13
  %.neg = mul i64 %.03745, -9
  %gep = getelementptr i8, ptr %invariant.gep, i64 %.neg
  br label %37

35:                                               ; preds = %37
  %36 = add nuw i64 %.03745, 1
  %exitcond51.not = icmp eq i64 %36, %27
  br i1 %exitcond51.not, label %.preheader, label %.lr.ph, !llvm.loop !36

37:                                               ; preds = %.lr.ph, %37
  %.03544 = phi i64 [ 0, %.lr.ph ], [ %44, %37 ]
  %.03643 = phi i32 [ %34, %.lr.ph ], [ %43, %37 ]
  %38 = urem i32 %.03643, 10
  %39 = trunc nuw nsw i32 %38 to i8
  %40 = or disjoint i8 %39, 48
  %41 = xor i64 %.03544, -1
  %42 = getelementptr i8, ptr %gep, i64 %41
  store i8 %40, ptr %42, align 1, !tbaa !7
  %43 = udiv i32 %.03643, 10
  %44 = add nuw nsw i64 %.03544, 1
  %exitcond.not = icmp eq i64 %44, 9
  br i1 %exitcond.not, label %35, label %37, !llvm.loop !37

.lr.ph47:                                         ; preds = %.lr.ph47.preheader, %48
  %.046 = phi i64 [ %49, %48 ], [ 0, %.lr.ph47.preheader ]
  %45 = getelementptr i8, ptr %29, i64 %.046
  %46 = load i8, ptr %45, align 1, !tbaa !7
  %47 = icmp eq i8 %46, 48
  br i1 %47, label %48, label %pm_integer_free.exit41

48:                                               ; preds = %.lr.ph47
  %49 = add nuw i64 %.046, 1
  %exitcond52.not = icmp eq i64 %49, %32
  br i1 %exitcond52.not, label %pm_integer_free.exit41, label %.lr.ph47, !llvm.loop !38

pm_integer_free.exit41:                           ; preds = %.lr.ph47, %48, %.preheader
  %.0.lcssa = phi i64 [ 0, %.preheader ], [ %32, %48 ], [ %.046, %.lr.ph47 ]
  %50 = getelementptr i8, ptr %29, i64 %.0.lcssa
  %51 = sub i64 %28, %.0.lcssa
  tail call void @pm_buffer_append_string(ptr noundef %0, ptr noundef %50, i64 noundef %51) #14
  tail call void @free(ptr noundef %29) #14
  tail call void @free(ptr noundef nonnull %22) #14
  br label %52

52:                                               ; preds = %pm_integer_free.exit41, %26, %pm_integer_free.exit
  call void @llvm.lifetime.end.p0(i64 24, ptr nonnull %3) #14
  br label %53

53:                                               ; preds = %52, %18, %12
  ret void
}